; Function Attrs: mustprogress uwtable
define hidden noundef ptr @pj_lonlat(ptr noundef writeonly %0) local_unnamed_addr #0 {
  %.not = icmp eq ptr %0, null
  br i1 %.not, label %11, label %2

2:                                                ; preds = %1
  %3 = getelementptr inbounds nuw i8, ptr %0, i64 352
  store i32 1, ptr %3, align 8, !tbaa !3
  %4 = getelementptr inbounds nuw i8, ptr %0, i64 456
  %5 = getelementptr inbounds nuw i8, ptr %0, i64 112
  tail call void @llvm.memset.p0.i64(ptr noundef nonnull align 8 dereferenceable(16) %4, i8 0, i64 16, i1 false)
  store ptr @_ZL15latlong_inverse5PJ_XYP8PJconsts, ptr %5, align 8, !tbaa !36
  %6 = getelementptr inbounds nuw i8, ptr %0, i64 104
  store ptr @_ZL15latlong_forward5PJ_LPP8PJconsts, ptr %6, align 8, !tbaa !37
  %7 = getelementptr inbounds nuw i8, ptr %0, i64 128
  store ptr @_ZL18latlong_inverse_3d6PJ_XYZP8PJconsts, ptr %7, align 8, !tbaa !38
  %8 = getelementptr inbounds nuw i8, ptr %0, i64 120
  store ptr @_ZL18latlong_forward_3d6PJ_LPZP8PJconsts, ptr %8, align 8, !tbaa !39
  %9 = getelementptr inbounds nuw i8, ptr %0, i64 144
  store ptr @_ZL18latlong_inverse_4dR8PJ_COORDP8PJconsts, ptr %9, align 8, !tbaa !40
  %10 = getelementptr inbounds nuw i8, ptr %0, i64 136
  store ptr @_ZL18latlong_forward_4dR8PJ_COORDP8PJconsts, ptr %10, align 8, !tbaa !41
  br label %.sink.split

11:                                               ; preds = %1
  %12 = tail call noundef ptr @_Z6pj_newv()
  %13 = icmp eq ptr %12, null
  br i1 %13, label %20, label %14

14:                                               ; preds = %11
  %15 = getelementptr inbounds nuw i8, ptr %12, i64 8
  store ptr @.str.3, ptr %15, align 8, !tbaa !42
  %16 = getelementptr inbounds nuw i8, ptr %12, i64 16
  store ptr @_ZL10des_lonlat, ptr %16, align 8, !tbaa !43
  %17 = getelementptr inbounds nuw i8, ptr %12, i64 360
  store i32 1, ptr %17, align 8, !tbaa !44
  br label %.sink.split

.sink.split:                                      ; preds = %2, %14
  %.sink15 = phi ptr [ %12, %14 ], [ %0, %2 ]
  %.sink = phi i32 [ 1, %14 ], [ 4, %2 ]
  %18 = getelementptr inbounds nuw i8, ptr %.sink15, i64 380
  store i32 4, ptr %18, align 4, !tbaa !45
  %19 = getelementptr inbounds nuw i8, ptr %.sink15, i64 384
  store i32 %.sink, ptr %19, align 8, !tbaa !46
  br label %20

20:                                               ; preds = %.sink.split, %11
  %.0 = phi ptr [ null, %11 ], [ %.sink15, %.sink.split ]
  ret ptr %.0
}